target datalayout = "e-m:e-p270:32:32-p271:32:32-p272:64:64-i64:64-i128:128-f80:128-n8:16:32:64-S128"
target triple = "x86_64-pc-linux-gnu"

%struct.BCWriteCtx = type { %struct.SBuf, ptr, ptr, ptr, ptr, i32, i32, i32 }
%struct.SBuf = type { ptr, ptr, ptr, %struct.MRef }
%struct.MRef = type { i64 }
%struct.lua_State = type { %struct.GCRef, i8, i8, i8, i8, %struct.MRef, %struct.GCRef, ptr, ptr, %struct.MRef, %struct.MRef, %struct.GCRef, %struct.GCRef, ptr, i32 }
%struct.GCRef = type { i64 }
%struct.GCstr = type { %struct.GCRef, i8, i8, i8, i8, i32, i32, i32 }
%struct.global_State = type { ptr, ptr, %struct.GCState, %struct.GCstr, i8, i8, i8, i8, %struct.StrInternState, i32, %struct.GCRef, %struct.SBuf, %union.TValue, %union.TValue, %struct.Node, %union.TValue, %struct.GCupval, i32, i32, ptr, ptr, ptr, i32, i32, %struct.GCRef, %struct.MRef, %struct.MRef, %struct.PRNGState, [39 x %struct.GCRef] }
%struct.GCState = type { i64, i64, i8, i8, i8, i8, i32, %struct.GCRef, %struct.MRef, %struct.GCRef, %struct.GCRef, %struct.GCRef, %struct.GCRef, i64, i64, i32, i32, %struct.MRef }
%struct.StrInternState = type { ptr, i32, i32, i32, i8, i8, i8, i8, i64 }
%struct.Node = type { %union.TValue, %union.TValue, %struct.MRef }
%union.TValue = type { i64 }
%struct.GCupval = type { %struct.GCRef, i8, i8, i8, i8, %union.anon, %struct.MRef, i32 }
%union.anon = type { %struct.anon.1 }
%struct.anon.1 = type { %struct.GCRef, %struct.GCRef }
%struct.PRNGState = type { [4 x i64] }

; Function Attrs: alwaysinline nounwind uwtable
define internal void @lj_mem_free(ptr noundef %0, ptr noundef %1, i64 noundef %2) #2 {
  %4 = alloca ptr, align 8
  %5 = alloca ptr, align 8
  %6 = alloca i64, align 8
  store ptr %0, ptr %4, align 8, !tbaa !39
  store ptr %1, ptr %5, align 8, !tbaa !11
  store i64 %2, ptr %6, align 8, !tbaa !54
  %7 = load i64, ptr %6, align 8, !tbaa !54
  %8 = load ptr, ptr %4, align 8, !tbaa !39
  %9 = getelementptr inbounds nuw %struct.global_State, ptr %8, i32 0, i32 2
  %10 = getelementptr inbounds nuw %struct.GCState, ptr %9, i32 0, i32 0
  %11 = load i64, ptr %10, align 8, !tbaa !109
  %12 = sub i64 %11, %7
  store i64 %12, ptr %10, align 8, !tbaa !109
  %13 = load ptr, ptr %4, align 8, !tbaa !39
  %14 = getelementptr inbounds nuw %struct.global_State, ptr %13, i32 0, i32 0
  %15 = load ptr, ptr %14, align 8, !tbaa !116
  %16 = load ptr, ptr %4, align 8, !tbaa !39
  %17 = getelementptr inbounds nuw %struct.global_State, ptr %16, i32 0, i32 1
  %18 = load ptr, ptr %17, align 8, !tbaa !117
  %19 = load ptr, ptr %5, align 8, !tbaa !11
  %20 = load i64, ptr %6, align 8, !tbaa !54
  %21 = call ptr %15(ptr noundef %18, ptr noundef %19, i64 noundef %20, i64 noundef 0)
  ret void
}

; Function Attrs: nounwind uwtable
define internal void @bcwrite_heap_resize(ptr noundef %0, i32 noundef %1) #0 {
  %3 = alloca ptr, align 8
  %4 = alloca i32, align 4
  %5 = alloca ptr, align 8
  store ptr %0, ptr %3, align 8, !tbaa !37
  store i32 %1, ptr %4, align 4, !tbaa !12
  call void @llvm.lifetime.start.p0(i64 8, ptr %5) #7
  %6 = load ptr, ptr %3, align 8, !tbaa !37
  %7 = getelementptr inbounds nuw %struct.BCWriteCtx, ptr %6, i32 0, i32 0
  %8 = getelementptr inbounds nuw %struct.SBuf, ptr %7, i32 0, i32 3
  %9 = getelementptr inbounds nuw %struct.MRef, ptr %8, i32 0, i32 0
  %10 = load i64, ptr %9, align 8, !tbaa !26
  %11 = and i64 %10, -8
  %12 = inttoptr i64 %11 to ptr
  store ptr %12, ptr %5, align 8, !tbaa !4
  %13 = load ptr, ptr %3, align 8, !tbaa !37
  %14 = getelementptr inbounds nuw %struct.BCWriteCtx, ptr %13, i32 0, i32 5
  %15 = load i32, ptr %14, align 8, !tbaa !23
  %16 = icmp ne i32 %15, 0
  br i1 %16, label %17, label %33

17:                                               ; preds = %2
  %18 = load ptr, ptr %5, align 8, !tbaa !4
  %19 = getelementptr inbounds nuw %struct.lua_State, ptr %18, i32 0, i32 5
  %20 = getelementptr inbounds nuw %struct.MRef, ptr %19, i32 0, i32 0
  %21 = load i64, ptr %20, align 8, !tbaa !27
  %22 = inttoptr i64 %21 to ptr
  %23 = load ptr, ptr %3, align 8, !tbaa !37
  %24 = getelementptr inbounds nuw %struct.BCWriteCtx, ptr %23, i32 0, i32 4
  %25 = load ptr, ptr %24, align 8, !tbaa !41
  %26 = load ptr, ptr %3, align 8, !tbaa !37
  %27 = getelementptr inbounds nuw %struct.BCWriteCtx, ptr %26, i32 0, i32 5
  %28 = load i32, ptr %27, align 8, !tbaa !23
  %29 = zext i32 %28 to i64
  %30 = mul i64 %29, 8
  call void @lj_mem_free(ptr noundef %22, ptr noundef %25, i64 noundef %30)
  %31 = load ptr, ptr %3, align 8, !tbaa !37
  %32 = getelementptr inbounds nuw %struct.BCWriteCtx, ptr %31, i32 0, i32 5
  store i32 0, ptr %32, align 8, !tbaa !23
  br label %33

33:                                               ; preds = %17, %2
  %34 = load i32, ptr %4, align 4, !tbaa !12
  %35 = icmp ne i32 %34, 0
  br i1 %35, label %36, label %47

36:                                               ; preds = %33
  %37 = load ptr, ptr %5, align 8, !tbaa !4
  %38 = load i32, ptr %4, align 4, !tbaa !12
  %39 = zext i32 %38 to i64
  %40 = mul i64 %39, 8
  %41 = call ptr @lj_mem_realloc(ptr noundef %37, ptr noundef null, i64 noundef 0, i64 noundef %40)
  %42 = load ptr, ptr %3, align 8, !tbaa !37
  %43 = getelementptr inbounds nuw %struct.BCWriteCtx, ptr %42, i32 0, i32 4
  store ptr %41, ptr %43, align 8, !tbaa !41
  %44 = load i32, ptr %4, align 4, !tbaa !12
  %45 = load ptr, ptr %3, align 8, !tbaa !37
  %46 = getelementptr inbounds nuw %struct.BCWriteCtx, ptr %45, i32 0, i32 5
  store i32 %44, ptr %46, align 8, !tbaa !23
  br label %47

47:                                               ; preds = %36, %33
  call void @llvm.lifetime.end.p0(i64 8, ptr %5) #7
  ret void
}

; Function Attrs: alwaysinline nounwind uwtable
define internal void @lj_buf_free(ptr noundef %0, ptr noundef %1) #2 {
  %3 = alloca ptr, align 8
  %4 = alloca ptr, align 8
  store ptr %0, ptr %3, align 8, !tbaa !39
  store ptr %1, ptr %4, align 8, !tbaa !31
  %5 = load ptr, ptr %3, align 8, !tbaa !39
  %6 = load ptr, ptr %4, align 8, !tbaa !31
  %7 = getelementptr inbounds nuw %struct.SBuf, ptr %6, i32 0, i32 2
  %8 = load ptr, ptr %7, align 8, !tbaa !34
  %9 = load ptr, ptr %4, align 8, !tbaa !31
  %10 = getelementptr inbounds nuw %struct.SBuf, ptr %9, i32 0, i32 1
  %11 = load ptr, ptr %10, align 8, !tbaa !35
  %12 = load ptr, ptr %4, align 8, !tbaa !31
  %13 = getelementptr inbounds nuw %struct.SBuf, ptr %12, i32 0, i32 2
  %14 = load ptr, ptr %13, align 8, !tbaa !34
  %15 = ptrtoint ptr %11 to i64
  %16 = ptrtoint ptr %14 to i64
  %17 = sub i64 %15, %16
  %18 = trunc i64 %17 to i32
  %19 = zext i32 %18 to i64
  call void @lj_mem_free(ptr noundef %5, ptr noundef %8, i64 noundef %19)
  ret void
}

; Function Attrs: alwaysinline nounwind uwtable
define internal void @lj_buf_init(ptr noundef %0, ptr noundef %1) #2 {
  %3 = alloca ptr, align 8
  %4 = alloca ptr, align 8
  store ptr %0, ptr %3, align 8, !tbaa !4
  store ptr %1, ptr %4, align 8, !tbaa !31
  %5 = load ptr, ptr %3, align 8, !tbaa !4
  %6 = ptrtoint ptr %5 to i64
  %7 = load ptr, ptr %4, align 8, !tbaa !31
  %8 = getelementptr inbounds nuw %struct.SBuf, ptr %7, i32 0, i32 3
  %9 = getelementptr inbounds nuw %struct.MRef, ptr %8, i32 0, i32 0
  store i64 %6, ptr %9, align 8, !tbaa !33
  %10 = load ptr, ptr %4, align 8, !tbaa !31
  %11 = getelementptr inbounds nuw %struct.SBuf, ptr %10, i32 0, i32 2
  store ptr null, ptr %11, align 8, !tbaa !34
  %12 = load ptr, ptr %4, align 8, !tbaa !31
  %13 = getelementptr inbounds nuw %struct.SBuf, ptr %12, i32 0, i32 1
  store ptr null, ptr %13, align 8, !tbaa !35
  %14 = load ptr, ptr %4, align 8, !tbaa !31
  %15 = getelementptr inbounds nuw %struct.SBuf, ptr %14, i32 0, i32 0
  store ptr null, ptr %15, align 8, !tbaa !36
  ret void
}

; Function Attrs: nounwind uwtable
define hidden i32 @lj_bcwrite(ptr noundef %0, ptr noundef %1, ptr noundef %2, ptr noundef %3, i32 noundef %4) #0 {
  %6 = alloca ptr, align 8
  %7 = alloca ptr, align 8
  %8 = alloca ptr, align 8
  %9 = alloca ptr, align 8
  %10 = alloca i32, align 4
  %11 = alloca %struct.BCWriteCtx, align 8
  %12 = alloca i32, align 4
  store ptr %0, ptr %6, align 8, !tbaa !4
  store ptr %1, ptr %7, align 8, !tbaa !9
  store ptr %2, ptr %8, align 8, !tbaa !11
  store ptr %3, ptr %9, align 8, !tbaa !11
  store i32 %4, ptr %10, align 4, !tbaa !12
  call void @llvm.lifetime.start.p0(i64 80, ptr %11) #7
  call void @llvm.lifetime.start.p0(i64 4, ptr %12) #7
  %13 = load ptr, ptr %7, align 8, !tbaa !9
  %14 = getelementptr inbounds nuw %struct.BCWriteCtx, ptr %11, i32 0, i32 1
  store ptr %13, ptr %14, align 8, !tbaa !14
  %15 = load ptr, ptr %8, align 8, !tbaa !11
  %16 = getelementptr inbounds nuw %struct.BCWriteCtx, ptr %11, i32 0, i32 2
  store ptr %15, ptr %16, align 8, !tbaa !21
  %17 = load ptr, ptr %9, align 8, !tbaa !11
  %18 = getelementptr inbounds nuw %struct.BCWriteCtx, ptr %11, i32 0, i32 3
  store ptr %17, ptr %18, align 8, !tbaa !22
  %19 = getelementptr inbounds nuw %struct.BCWriteCtx, ptr %11, i32 0, i32 5
  store i32 0, ptr %19, align 8, !tbaa !23
  %20 = load ptr, ptr %7, align 8, !tbaa !9
  %21 = getelementptr inbounds nuw i8, ptr %20, i64 104
  %22 = getelementptr inbounds i32, ptr %21, i64 0
  %23 = load i32, ptr %22, align 4, !tbaa !12
  %24 = and i32 %23, 255
  %25 = icmp ne i32 %24, 19
  %26 = zext i1 %25 to i32
  %27 = icmp eq i32 %26, 1
  br i1 %27, label %28, label %31

28:                                               ; preds = %5
  %29 = load i32, ptr %10, align 4, !tbaa !12
  %30 = or i32 %29, 8
  store i32 %30, ptr %10, align 4, !tbaa !12
  br label %31

31:                                               ; preds = %28, %5
  %32 = load i32, ptr %10, align 4, !tbaa !12
  %33 = getelementptr inbounds nuw %struct.BCWriteCtx, ptr %11, i32 0, i32 6
  store i32 %32, ptr %33, align 4, !tbaa !24
  %34 = getelementptr inbounds nuw %struct.BCWriteCtx, ptr %11, i32 0, i32 7
  store i32 0, ptr %34, align 8, !tbaa !25
  %35 = load ptr, ptr %6, align 8, !tbaa !4
  %36 = getelementptr inbounds nuw %struct.BCWriteCtx, ptr %11, i32 0, i32 0
  call void @lj_buf_init(ptr noundef %35, ptr noundef %36)
  %37 = load ptr, ptr %6, align 8, !tbaa !4
  %38 = call i32 @lj_vm_cpcall(ptr noundef %37, ptr noundef null, ptr noundef %11, ptr noundef @cpwriter)
  store i32 %38, ptr %12, align 4, !tbaa !12
  %39 = load i32, ptr %12, align 4, !tbaa !12
  %40 = icmp eq i32 %39, 0
  br i1 %40, label %41, label %44

41:                                               ; preds = %31
  %42 = getelementptr inbounds nuw %struct.BCWriteCtx, ptr %11, i32 0, i32 7
  %43 = load i32, ptr %42, align 8, !tbaa !25
  store i32 %43, ptr %12, align 4, !tbaa !12
  br label %44

44:                                               ; preds = %41, %31
  %45 = getelementptr inbounds nuw %struct.BCWriteCtx, ptr %11, i32 0, i32 0
  %46 = getelementptr inbounds nuw %struct.SBuf, ptr %45, i32 0, i32 3
  %47 = getelementptr inbounds nuw %struct.MRef, ptr %46, i32 0, i32 0
  %48 = load i64, ptr %47, align 8, !tbaa !26
  %49 = and i64 %48, -8
  %50 = inttoptr i64 %49 to ptr
  %51 = getelementptr inbounds nuw %struct.lua_State, ptr %50, i32 0, i32 5
  %52 = getelementptr inbounds nuw %struct.MRef, ptr %51, i32 0, i32 0
  %53 = load i64, ptr %52, align 8, !tbaa !27
  %54 = inttoptr i64 %53 to ptr
  %55 = getelementptr inbounds nuw %struct.BCWriteCtx, ptr %11, i32 0, i32 0
  call void @lj_buf_free(ptr noundef %54, ptr noundef %55)
  call void @bcwrite_heap_resize(ptr noundef %11, i32 noundef 0)
  %56 = load i32, ptr %12, align 4, !tbaa !12
  call void @llvm.lifetime.end.p0(i64 4, ptr %12) #7
  call void @llvm.lifetime.end.p0(i64 80, ptr %11) #7
  ret i32 %56
}