; Function Attrs: nounwind uwtable
define hidden i32 @lj_bcwrite(ptr noundef %0, ptr noundef %1, ptr noundef %2, ptr noundef %3, i32 noundef %4) local_unnamed_addr #0 {
  %6 = alloca %struct.BCWriteCtx, align 8
  call void @llvm.lifetime.start.p0(i64 80, ptr nonnull %6) #7
  %7 = getelementptr inbounds nuw i8, ptr %6, i64 32
  store ptr %1, ptr %7, align 8, !tbaa !4
  %8 = getelementptr inbounds nuw i8, ptr %6, i64 40
  store ptr %2, ptr %8, align 8, !tbaa !16
  %9 = getelementptr inbounds nuw i8, ptr %6, i64 48
  store ptr %3, ptr %9, align 8, !tbaa !17
  %10 = getelementptr inbounds nuw i8, ptr %6, i64 64
  store i32 0, ptr %10, align 8, !tbaa !18
  %11 = getelementptr inbounds nuw i8, ptr %1, i64 104
  %12 = load i32, ptr %11, align 4, !tbaa !19
  %13 = and i32 %12, 255
  %.not = icmp eq i32 %13, 19
  %14 = or i32 %4, 8
  %spec.select = select i1 %.not, i32 %4, i32 %14
  %15 = getelementptr inbounds nuw i8, ptr %6, i64 68
  store i32 %spec.select, ptr %15, align 4, !tbaa !20
  %16 = getelementptr inbounds nuw i8, ptr %6, i64 72
  store i32 0, ptr %16, align 8, !tbaa !21
  %17 = ptrtoint ptr %0 to i64
  %18 = getelementptr inbounds nuw i8, ptr %6, i64 24
  store i64 %17, ptr %18, align 8, !tbaa !22
  %19 = getelementptr inbounds nuw i8, ptr %6, i64 16
  %20 = getelementptr inbounds nuw i8, ptr %6, i64 8
  call void @llvm.memset.p0.i64(ptr noundef nonnull align 8 dereferenceable(24) %6, i8 0, i64 24, i1 false)
  %21 = call i32 @lj_vm_cpcall(ptr noundef %0, ptr noundef null, ptr noundef nonnull %6, ptr noundef nonnull @cpwriter) #7
  %22 = load i32, ptr %16, align 8
  %23 = load i64, ptr %18, align 8, !tbaa !23
  %24 = and i64 %23, -8
  %25 = inttoptr i64 %24 to ptr
  %26 = getelementptr inbounds nuw i8, ptr %25, i64 16
  %27 = load i64, ptr %26, align 8, !tbaa !24
  %28 = inttoptr i64 %27 to ptr
  %29 = load ptr, ptr %19, align 8, !tbaa !28
  %30 = load ptr, ptr %20, align 8, !tbaa !29
  %31 = ptrtoint ptr %30 to i64
  %32 = ptrtoint ptr %29 to i64
  %33 = sub i64 %31, %32
  %34 = and i64 %33, 4294967295
  %35 = getelementptr inbounds nuw i8, ptr %28, i64 16
  %36 = load i64, ptr %35, align 8, !tbaa !30
  %37 = sub i64 %36, %34
  store i64 %37, ptr %35, align 8, !tbaa !30
  %38 = load ptr, ptr %28, align 8, !tbaa !39
  %39 = getelementptr inbounds nuw i8, ptr %28, i64 8
  %40 = load ptr, ptr %39, align 8, !tbaa !40
  %41 = call ptr %38(ptr noundef %40, ptr noundef %29, i64 noundef range(i64 0, 34359738361) %34, i64 noundef 0) #7
  %42 = load i32, ptr %10, align 8, !tbaa !18
  %.not.i = icmp eq i32 %42, 0
  br i1 %.not.i, label %bcwrite_heap_resize.exit, label %43

43:                                               ; preds = %5
  %44 = load i64, ptr %18, align 8, !tbaa !23
  %45 = and i64 %44, -8
  %46 = inttoptr i64 %45 to ptr
  %47 = getelementptr inbounds nuw i8, ptr %46, i64 16
  %48 = load i64, ptr %47, align 8, !tbaa !24
  %49 = inttoptr i64 %48 to ptr
  %50 = getelementptr inbounds nuw i8, ptr %6, i64 56
  %51 = load ptr, ptr %50, align 8, !tbaa !41
  %52 = zext i32 %42 to i64
  %53 = shl nuw nsw i64 %52, 3
  %54 = getelementptr inbounds nuw i8, ptr %49, i64 16
  %55 = load i64, ptr %54, align 8, !tbaa !30
  %56 = sub i64 %55, %53
  store i64 %56, ptr %54, align 8, !tbaa !30
  %57 = load ptr, ptr %49, align 8, !tbaa !39
  %58 = getelementptr inbounds nuw i8, ptr %49, i64 8
  %59 = load ptr, ptr %58, align 8, !tbaa !40
  %60 = call ptr %57(ptr noundef %59, ptr noundef %51, i64 noundef range(i64 0, 34359738361) %53, i64 noundef 0) #7
  br label %bcwrite_heap_resize.exit

bcwrite_heap_resize.exit:                         ; preds = %5, %43
  %61 = icmp eq i32 %21, 0
  %.0 = select i1 %61, i32 %22, i32 %21
  call void @llvm.lifetime.end.p0(i64 80, ptr nonnull %6) #7
  ret i32 %.0
}